target datalayout = "e-m:e-p270:32:32-p271:32:32-p272:64:64-i64:64-i128:128-f80:128-n8:16:32:64-S128"
target triple = "x86_64-pc-linux-gnu"

%struct.H5D_dset_io_info_t = type { ptr, ptr, %struct.H5D_layout_ops_t, %union.H5_flexible_const_ptr_t, %struct.H5D_io_ops_t, ptr, i64, ptr, ptr, %union.anon.0, ptr, %struct.H5D_type_info_t, i8 }
%struct.H5D_layout_ops_t = type { ptr, ptr, ptr, ptr, ptr, ptr, ptr, ptr, ptr, ptr, ptr, ptr, ptr }
%union.H5_flexible_const_ptr_t = type { ptr }
%struct.H5D_io_ops_t = type { ptr, ptr, ptr, ptr }
%union.anon.0 = type { ptr }
%struct.H5D_type_info_t = type { ptr, ptr, ptr, ptr, ptr, i64, i64, i8, i8, ptr, i32, i64 }

@.str = private unnamed_addr constant [112 x i8] c"generated/home/dtcxzyw/WorkSpace/Projects/compilers/llvm-opt-benchmark/bench/hdf5/hdf5/src/H5VLnative_dataset.c\00", align 1
@H5E_DATASET_g = external global i64, align 8
@H5E_CANTRELEASE_g = external global i64, align 8
@__func__.H5VL__native_dataset_io_cleanup = private unnamed_addr constant [32 x i8] c"H5VL__native_dataset_io_cleanup\00", align 1
@.str.56 = private unnamed_addr constant [59 x i8] c"unable to release temporary memory dataspace for H5S_BLOCK\00", align 1
@.str.57 = private unnamed_addr constant [57 x i8] c"unable to release file dataspace selection for H5S_PLIST\00", align 1

; Function Attrs: nounwind uwtable
define internal i32 @H5VL__native_dataset_io_cleanup(i64 noundef %0, ptr noundef %1, ptr noundef %2, ptr noundef %3) #0 {
  %5 = alloca i64, align 8
  %6 = alloca ptr, align 8
  %7 = alloca ptr, align 8
  %8 = alloca ptr, align 8
  %9 = alloca i64, align 8
  %10 = alloca i32, align 4
  %11 = alloca i8, align 1
  store i64 %0, ptr %5, align 8, !tbaa !11
  store ptr %1, ptr %6, align 8, !tbaa !32
  store ptr %2, ptr %7, align 8, !tbaa !32
  store ptr %3, ptr %8, align 8, !tbaa !34
  call void @llvm.lifetime.start.p0(i64 8, ptr %9) #6
  call void @llvm.lifetime.start.p0(i64 4, ptr %10) #6
  store i32 0, ptr %10, align 4, !tbaa !36
  call void @llvm.lifetime.start.p0(i64 1, ptr %11) #6
  store i8 0, ptr %11, align 1, !tbaa !15
  store i64 0, ptr %9, align 8, !tbaa !11
  br label %12

12:                                               ; preds = %93, %4
  %13 = load i64, ptr %9, align 8, !tbaa !11
  %14 = load i64, ptr %5, align 8, !tbaa !11
  %15 = icmp ult i64 %13, %14
  br i1 %15, label %16, label %96

16:                                               ; preds = %12
  %17 = load ptr, ptr %6, align 8, !tbaa !32
  %18 = load i64, ptr %9, align 8, !tbaa !11
  %19 = getelementptr inbounds nuw i64, ptr %17, i64 %18
  %20 = load i64, ptr %19, align 8, !tbaa !11
  %21 = icmp eq i64 1, %20
  br i1 %21, label %22, label %54

22:                                               ; preds = %16
  %23 = load ptr, ptr %8, align 8, !tbaa !34
  %24 = load i64, ptr %9, align 8, !tbaa !11
  %25 = getelementptr inbounds nuw %struct.H5D_dset_io_info_t, ptr %23, i64 %24
  %26 = getelementptr inbounds nuw %struct.H5D_dset_io_info_t, ptr %25, i32 0, i32 8
  %27 = load ptr, ptr %26, align 8, !tbaa !86
  %28 = icmp ne ptr %27, null
  br i1 %28, label %29, label %54

29:                                               ; preds = %22
  %30 = load ptr, ptr %8, align 8, !tbaa !34
  %31 = load i64, ptr %9, align 8, !tbaa !11
  %32 = getelementptr inbounds nuw %struct.H5D_dset_io_info_t, ptr %30, i64 %31
  %33 = getelementptr inbounds nuw %struct.H5D_dset_io_info_t, ptr %32, i32 0, i32 8
  %34 = load ptr, ptr %33, align 8, !tbaa !86
  %35 = call i32 @H5S_close(ptr noundef %34)
  %36 = icmp slt i32 %35, 0
  br i1 %36, label %37, label %53

37:                                               ; preds = %29
  br label %38

38:                                               ; preds = %37
  br label %39

39:                                               ; preds = %38
  br label %40

40:                                               ; preds = %39
  %41 = load i64, ptr @H5E_DATASET_g, align 8, !tbaa !11
  %42 = load i64, ptr @H5E_CANTRELEASE_g, align 8, !tbaa !11
  %43 = call i32 (ptr, ptr, i32, i64, i64, ptr, ...) @H5E_printf_stack(ptr noundef @.str, ptr noundef @__func__.H5VL__native_dataset_io_cleanup, i32 noundef 230, i64 noundef %41, i64 noundef %42, ptr noundef @.str.56)
  br label %44

44:                                               ; preds = %40
  br label %45

45:                                               ; preds = %44
  store i8 1, ptr %11, align 1, !tbaa !15
  %46 = load i8, ptr %11, align 1, !tbaa !15, !range !20, !noundef !21
  %47 = trunc i8 %46 to i1
  %48 = zext i1 %47 to i8
  store i8 %48, ptr %11, align 1, !tbaa !15
  br label %49

49:                                               ; preds = %45
  br label %50

50:                                               ; preds = %49
  store i32 -1, ptr %10, align 4, !tbaa !36
  br label %51

51:                                               ; preds = %50
  br label %52

52:                                               ; preds = %51
  br label %53

53:                                               ; preds = %52, %29
  br label %54

54:                                               ; preds = %53, %22, %16
  %55 = load ptr, ptr %7, align 8, !tbaa !32
  %56 = load i64, ptr %9, align 8, !tbaa !11
  %57 = getelementptr inbounds nuw i64, ptr %55, i64 %56
  %58 = load i64, ptr %57, align 8, !tbaa !11
  %59 = icmp eq i64 2, %58
  br i1 %59, label %60, label %92

60:                                               ; preds = %54
  %61 = load ptr, ptr %8, align 8, !tbaa !34
  %62 = load i64, ptr %9, align 8, !tbaa !11
  %63 = getelementptr inbounds nuw %struct.H5D_dset_io_info_t, ptr %61, i64 %62
  %64 = getelementptr inbounds nuw %struct.H5D_dset_io_info_t, ptr %63, i32 0, i32 7
  %65 = load ptr, ptr %64, align 8, !tbaa !83
  %66 = icmp ne ptr %65, null
  br i1 %66, label %67, label %92

67:                                               ; preds = %60
  %68 = load ptr, ptr %8, align 8, !tbaa !34
  %69 = load i64, ptr %9, align 8, !tbaa !11
  %70 = getelementptr inbounds nuw %struct.H5D_dset_io_info_t, ptr %68, i64 %69
  %71 = getelementptr inbounds nuw %struct.H5D_dset_io_info_t, ptr %70, i32 0, i32 7
  %72 = load ptr, ptr %71, align 8, !tbaa !83
  %73 = call i32 @H5S_select_all(ptr noundef %72, i1 noundef zeroext true)
  %74 = icmp slt i32 %73, 0
  br i1 %74, label %75, label %91

75:                                               ; preds = %67
  br label %76

76:                                               ; preds = %75
  br label %77

77:                                               ; preds = %76
  br label %78

78:                                               ; preds = %77
  %79 = load i64, ptr @H5E_DATASET_g, align 8, !tbaa !11
  %80 = load i64, ptr @H5E_CANTRELEASE_g, align 8, !tbaa !11
  %81 = call i32 (ptr, ptr, i32, i64, i64, ptr, ...) @H5E_printf_stack(ptr noundef @.str, ptr noundef @__func__.H5VL__native_dataset_io_cleanup, i32 noundef 236, i64 noundef %79, i64 noundef %80, ptr noundef @.str.57)
  br label %82

82:                                               ; preds = %78
  br label %83

83:                                               ; preds = %82
  store i8 1, ptr %11, align 1, !tbaa !15
  %84 = load i8, ptr %11, align 1, !tbaa !15, !range !20, !noundef !21
  %85 = trunc i8 %84 to i1
  %86 = zext i1 %85 to i8
  store i8 %86, ptr %11, align 1, !tbaa !15
  br label %87

87:                                               ; preds = %83
  br label %88

88:                                               ; preds = %87
  store i32 -1, ptr %10, align 4, !tbaa !36
  br label %89

89:                                               ; preds = %88
  br label %90

90:                                               ; preds = %89
  br label %91

91:                                               ; preds = %90, %67
  br label %92

92:                                               ; preds = %91, %60, %54
  br label %93

93:                                               ; preds = %92
  %94 = load i64, ptr %9, align 8, !tbaa !11
  %95 = add i64 %94, 1
  store i64 %95, ptr %9, align 8, !tbaa !11
  br label %12, !llvm.loop !91

96:                                               ; preds = %12
  %97 = load i32, ptr %10, align 4, !tbaa !36
  call void @llvm.lifetime.end.p0(i64 1, ptr %11) #6
  call void @llvm.lifetime.end.p0(i64 4, ptr %10) #6
  call void @llvm.lifetime.end.p0(i64 8, ptr %9) #6
  ret i32 %97
}